; Function Attrs: nounwind uwtable
define internal void @add_error_token_at_current(ptr nocapture noundef %0, ptr noundef %1, ...) unnamed_addr #0 {
  %3 = alloca [1 x %struct.__va_list_tag], align 16
  call void @llvm.va_start.p0(ptr nonnull %3)
  %4 = getelementptr inbounds i8, ptr %0, i64 32
  %5 = load i32, ptr %4, align 8
  %6 = getelementptr inbounds i8, ptr %0, i64 56
  %7 = load ptr, ptr %6, align 8
  %8 = load i16, ptr %7, align 8
  %9 = getelementptr inbounds i8, ptr %0, i64 24
  %10 = load ptr, ptr %9, align 8
  %11 = getelementptr inbounds i8, ptr %0, i64 40
  %12 = load ptr, ptr %11, align 8
  %13 = ptrtoint ptr %10 to i64
  %14 = ptrtoint ptr %12 to i64
  %15 = sub i64 %13, %14
  %16 = icmp sgt i64 %15, 254
  %.sroa.4.0.insert.ext = zext i32 %5 to i64
  %.sroa.4.0.insert.shift = shl nuw i64 %.sroa.4.0.insert.ext, 32
  %17 = shl i64 %15, 24
  %18 = add i64 %17, 16777216
  %19 = and i64 %18, 4278190080
  %.sroa.3.0.insert.shift = select i1 %16, i64 0, i64 %19
  %.sroa.3.0.insert.insert = or disjoint i64 %.sroa.3.0.insert.shift, %.sroa.4.0.insert.shift
  %.sroa.0.0.insert.ext = zext i16 %8 to i64
  %.sroa.2.0.insert.insert = or disjoint i64 %.sroa.3.0.insert.insert, %.sroa.0.0.insert.ext
  %.sroa.0.0.insert.insert = or disjoint i64 %.sroa.2.0.insert.insert, 65536
  call void @sema_verror_range(i64 %.sroa.0.0.insert.insert, ptr noundef %1, ptr noundef nonnull %3) #10
  call void @llvm.va_end.p0(ptr nonnull %3)
  %20 = getelementptr inbounds i8, ptr %0, i64 112
  store i32 0, ptr %20, align 8
  %21 = load ptr, ptr %9, align 8
  %22 = getelementptr inbounds i8, ptr %0, i64 16
  %23 = load ptr, ptr %22, align 8
  %24 = ptrtoint ptr %21 to i64
  %25 = ptrtoint ptr %23 to i64
  %26 = sub i64 %24, %25
  %27 = getelementptr inbounds i8, ptr %0, i64 64
  %28 = getelementptr inbounds i8, ptr %0, i64 72
  store i64 %26, ptr %28, align 8
  store ptr %23, ptr %27, align 8
  %29 = getelementptr inbounds i8, ptr %0, i64 36
  %30 = load i32, ptr %29, align 4
  %31 = load i32, ptr %4, align 8
  %32 = icmp eq i32 %30, %31
  br i1 %32, label %33, label %43

33:                                               ; preds = %2
  %34 = load ptr, ptr %11, align 8
  %35 = ptrtoint ptr %34 to i64
  %36 = sub i64 %25, %35
  %37 = icmp sgt i64 %36, 254
  %38 = trunc i64 %36 to i8
  %39 = add i8 %38, 1
  %.0.i.i = select i1 %37, i8 0, i8 %39
  %40 = icmp sgt i64 %26, 255
  %41 = trunc i64 %26 to i8
  %42 = select i1 %40, i8 0, i8 %41
  br label %set_generic_token.exit

43:                                               ; preds = %2
  %44 = getelementptr inbounds i8, ptr %0, i64 48
  %45 = load ptr, ptr %44, align 8
  %46 = ptrtoint ptr %45 to i64
  %47 = sub i64 %25, %46
  %48 = icmp sgt i64 %47, 254
  %49 = trunc i64 %47 to i8
  %50 = add i8 %49, 1
  %.0.i26.i = select i1 %48, i8 0, i8 %50
  br label %set_generic_token.exit

set_generic_token.exit:                           ; preds = %33, %43
  %.024.in.i = phi i8 [ %.0.i.i, %33 ], [ %.0.i26.i, %43 ]
  %.0.i7 = phi i8 [ %42, %33 ], [ 1, %43 ]
  %51 = getelementptr inbounds i8, ptr %0, i64 106
  store i8 %.0.i7, ptr %51, align 2
  %52 = getelementptr inbounds i8, ptr %0, i64 107
  store i8 %.024.in.i, ptr %52, align 1
  %53 = getelementptr inbounds i8, ptr %0, i64 108
  store i32 %30, ptr %53, align 4
  ret void
}